target datalayout = "e-m:e-p270:32:32-p271:32:32-p272:64:64-i64:64-i128:128-f80:128-n8:16:32:64-S128"
target triple = "x86_64-pc-linux-gnu"

%struct.Gia_Obj_t_ = type <{ i64, i32 }>
%struct.Vec_Int_t_ = type { i32, i32, ptr }
%struct.Gia_Man_t_ = type { ptr, ptr, i32, i32, i32, i32, ptr, ptr, i32, i32, i32, ptr, ptr, %struct.Vec_Int_t_, %struct.Vec_Int_t_, i32, i32, i32, %struct.Vec_Int_t_, ptr, ptr, ptr, i32, i32, i32, i32, ptr, ptr, ptr, ptr, ptr, i32, i32, ptr, i32, ptr, ptr, ptr, ptr, ptr, ptr, ptr, ptr, ptr, ptr, ptr, ptr, ptr, ptr, ptr, ptr, ptr, ptr, %struct.Vec_Int_t_, %struct.Vec_Int_t_, ptr, ptr, ptr, ptr, ptr, ptr, ptr, ptr, ptr, ptr, ptr, ptr, ptr, ptr, ptr, ptr, ptr, ptr, ptr, ptr, ptr, i32, float, float, ptr, ptr, i32, ptr, ptr, ptr, ptr, ptr, ptr, ptr, ptr, ptr, ptr, ptr, ptr, ptr, ptr, ptr, i64, i64, ptr, ptr, i32, i32, i32, i32, i32, i32, i32, i32, i32, i32, i32, i32, ptr, ptr, ptr, ptr, ptr, ptr, ptr, ptr, i32, i32, i32, ptr, i32, i32, ptr, ptr, ptr, ptr, ptr, ptr, i32, i32, ptr, %struct.Vec_Int_t_, %struct.Vec_Int_t_, %struct.Vec_Int_t_, ptr, ptr, ptr }

; Function Attrs: nounwind uwtable
define internal i32 @Gia_ObjFaninId1(ptr noundef %0, i32 noundef %1) #0 {
  %3 = alloca ptr, align 8
  %4 = alloca i32, align 4
  store ptr %0, ptr %3, align 8
  store i32 %1, ptr %4, align 4
  %5 = load i32, ptr %4, align 4
  %6 = load ptr, ptr %3, align 8
  %7 = load i64, ptr %6, align 4
  %8 = lshr i64 %7, 32
  %9 = and i64 %8, 536870911
  %10 = trunc i64 %9 to i32
  %11 = sub nsw i32 %5, %10
  ret i32 %11
}

; Function Attrs: nounwind uwtable
define internal i32 @Gia_ObjFaninId0(ptr noundef %0, i32 noundef %1) #0 {
  %3 = alloca ptr, align 8
  %4 = alloca i32, align 4
  store ptr %0, ptr %3, align 8
  store i32 %1, ptr %4, align 4
  %5 = load i32, ptr %4, align 4
  %6 = load ptr, ptr %3, align 8
  %7 = load i64, ptr %6, align 4
  %8 = and i64 %7, 536870911
  %9 = trunc i64 %8 to i32
  %10 = sub nsw i32 %5, %9
  ret i32 %10
}

; Function Attrs: nounwind uwtable
define internal i32 @Gia_ObjIsAnd(ptr noundef %0) #0 {
  %2 = alloca ptr, align 8
  store ptr %0, ptr %2, align 8
  %3 = load ptr, ptr %2, align 8
  %4 = load i64, ptr %3, align 4
  %5 = lshr i64 %4, 31
  %6 = and i64 %5, 1
  %7 = trunc i64 %6 to i32
  %8 = icmp ne i32 %7, 0
  br i1 %8, label %15, label %9

9:                                                ; preds = %1
  %10 = load ptr, ptr %2, align 8
  %11 = load i64, ptr %10, align 4
  %12 = and i64 %11, 536870911
  %13 = trunc i64 %12 to i32
  %14 = icmp ne i32 %13, 536870911
  br label %15

15:                                               ; preds = %9, %1
  %16 = phi i1 [ false, %1 ], [ %14, %9 ]
  %17 = zext i1 %16 to i32
  ret i32 %17
}

; Function Attrs: nounwind uwtable
define internal ptr @Gia_ManObj(ptr noundef %0, i32 noundef %1) #0 {
  %3 = alloca ptr, align 8
  %4 = alloca i32, align 4
  store ptr %0, ptr %3, align 8
  store i32 %1, ptr %4, align 4
  %5 = load ptr, ptr %3, align 8
  %6 = getelementptr inbounds %struct.Gia_Man_t_, ptr %5, i32 0, i32 6
  %7 = load ptr, ptr %6, align 8
  %8 = load i32, ptr %4, align 4
  %9 = sext i32 %8 to i64
  %10 = getelementptr inbounds %struct.Gia_Obj_t_, ptr %7, i64 %9
  ret ptr %10
}

; Function Attrs: nounwind uwtable
define internal void @Gia_ObjSetTravIdCurrentId(ptr noundef %0, i32 noundef %1) #0 {
  %3 = alloca ptr, align 8
  %4 = alloca i32, align 4
  store ptr %0, ptr %3, align 8
  store i32 %1, ptr %4, align 4
  %5 = load ptr, ptr %3, align 8
  %6 = getelementptr inbounds %struct.Gia_Man_t_, ptr %5, i32 0, i32 24
  %7 = load i32, ptr %6, align 8
  %8 = load ptr, ptr %3, align 8
  %9 = getelementptr inbounds %struct.Gia_Man_t_, ptr %8, i32 0, i32 80
  %10 = load ptr, ptr %9, align 8
  %11 = load i32, ptr %4, align 4
  %12 = sext i32 %11 to i64
  %13 = getelementptr inbounds i32, ptr %10, i64 %12
  store i32 %7, ptr %13, align 4
  ret void
}

; Function Attrs: nounwind uwtable
define internal i32 @Gia_ObjIsTravIdCurrentId(ptr noundef %0, i32 noundef %1) #0 {
  %3 = alloca ptr, align 8
  %4 = alloca i32, align 4
  store ptr %0, ptr %3, align 8
  store i32 %1, ptr %4, align 4
  %5 = load ptr, ptr %3, align 8
  %6 = getelementptr inbounds %struct.Gia_Man_t_, ptr %5, i32 0, i32 80
  %7 = load ptr, ptr %6, align 8
  %8 = load i32, ptr %4, align 4
  %9 = sext i32 %8 to i64
  %10 = getelementptr inbounds i32, ptr %7, i64 %9
  %11 = load i32, ptr %10, align 4
  %12 = load ptr, ptr %3, align 8
  %13 = getelementptr inbounds %struct.Gia_Man_t_, ptr %12, i32 0, i32 24
  %14 = load i32, ptr %13, align 8
  %15 = icmp eq i32 %11, %14
  %16 = zext i1 %15 to i32
  ret i32 %16
}

; Function Attrs: nounwind uwtable
define i32 @Gia_ManCountMark1Dfs_rec(ptr noundef %0, i32 noundef %1) #0 {
  %3 = alloca i32, align 4
  %4 = alloca ptr, align 8
  %5 = alloca i32, align 4
  %6 = alloca ptr, align 8
  store ptr %0, ptr %4, align 8
  store i32 %1, ptr %5, align 4
  %7 = load ptr, ptr %4, align 8
  %8 = load i32, ptr %5, align 4
  %9 = call i32 @Gia_ObjIsTravIdCurrentId(ptr noundef %7, i32 noundef %8)
  %10 = icmp ne i32 %9, 0
  br i1 %10, label %11, label %12

11:                                               ; preds = %2
  store i32 0, ptr %3, align 4
  br label %45

12:                                               ; preds = %2
  %13 = load ptr, ptr %4, align 8
  %14 = load i32, ptr %5, align 4
  call void @Gia_ObjSetTravIdCurrentId(ptr noundef %13, i32 noundef %14)
  %15 = load ptr, ptr %4, align 8
  %16 = load i32, ptr %5, align 4
  %17 = call ptr @Gia_ManObj(ptr noundef %15, i32 noundef %16)
  store ptr %17, ptr %6, align 8
  %18 = load ptr, ptr %6, align 8
  %19 = call i32 @Gia_ObjIsAnd(ptr noundef %18)
  %20 = icmp ne i32 %19, 0
  br i1 %20, label %27, label %21

21:                                               ; preds = %12
  %22 = load ptr, ptr %6, align 8
  %23 = load i64, ptr %22, align 4
  %24 = lshr i64 %23, 62
  %25 = and i64 %24, 1
  %26 = trunc i64 %25 to i32
  store i32 %26, ptr %3, align 4
  br label %45

27:                                               ; preds = %12
  %28 = load ptr, ptr %4, align 8
  %29 = load ptr, ptr %6, align 8
  %30 = load i32, ptr %5, align 4
  %31 = call i32 @Gia_ObjFaninId0(ptr noundef %29, i32 noundef %30)
  %32 = call i32 @Gia_ManCountMark1Dfs_rec(ptr noundef %28, i32 noundef %31)
  %33 = load ptr, ptr %4, align 8
  %34 = load ptr, ptr %6, align 8
  %35 = load i32, ptr %5, align 4
  %36 = call i32 @Gia_ObjFaninId1(ptr noundef %34, i32 noundef %35)
  %37 = call i32 @Gia_ManCountMark1Dfs_rec(ptr noundef %33, i32 noundef %36)
  %38 = add nsw i32 %32, %37
  %39 = load ptr, ptr %6, align 8
  %40 = load i64, ptr %39, align 4
  %41 = lshr i64 %40, 62
  %42 = and i64 %41, 1
  %43 = trunc i64 %42 to i32
  %44 = add nsw i32 %38, %43
  store i32 %44, ptr %3, align 4
  br label %45

45:                                               ; preds = %27, %21, %11
  %46 = load i32, ptr %3, align 4
  ret i32 %46
}