; Function Attrs: nofree nosync nounwind memory(readwrite, inaccessiblemem: none) uwtable
define i32 @Gia_ManCountMark1Dfs_rec(ptr noundef %0, i32 noundef %1) local_unnamed_addr #14 {
  %3 = getelementptr i8, ptr %0, i64 176
  %.val19 = load i32, ptr %3, align 8
  %4 = getelementptr i8, ptr %0, i64 616
  %.val20 = load ptr, ptr %4, align 8
  %5 = sext i32 %1 to i64
  %6 = getelementptr inbounds i32, ptr %.val20, i64 %5
  %7 = load i32, ptr %6, align 4
  %.not = icmp eq i32 %7, %.val19
  br i1 %.not, label %common.ret24, label %8

8:                                                ; preds = %2
  store i32 %.val19, ptr %6, align 4
  %9 = getelementptr i8, ptr %0, i64 32
  %.val = load ptr, ptr %9, align 8
  %10 = getelementptr inbounds %struct.Gia_Obj_t_, ptr %.val, i64 %5
  %.val16 = load i64, ptr %10, align 4
  %11 = and i64 %.val16, 2147483648
  %.not.i = icmp ne i64 %11, 0
  %12 = and i64 %.val16, 536870911
  %13 = icmp eq i64 %12, 536870911
  %narrow.i.not = or i1 %.not.i, %13
  br i1 %narrow.i.not, label %14, label %18

14:                                               ; preds = %8
  %15 = lshr i64 %.val16, 62
  %16 = trunc nuw nsw i64 %15 to i32
  %17 = and i32 %16, 1
  br label %common.ret24

common.ret24:                                     ; preds = %2, %14, %18
  %common.ret24.op = phi i32 [ %33, %18 ], [ %17, %14 ], [ 0, %2 ]
  ret i32 %common.ret24.op

18:                                               ; preds = %8
  %19 = trunc i64 %.val16 to i32
  %20 = and i32 %19, 536870911
  %21 = sub nsw i32 %1, %20
  %22 = tail call i32 @Gia_ManCountMark1Dfs_rec(ptr noundef nonnull %0, i32 noundef %21)
  %.val18 = load i64, ptr %10, align 4
  %23 = lshr i64 %.val18, 32
  %24 = trunc nuw i64 %23 to i32
  %25 = and i32 %24, 536870911
  %26 = sub nsw i32 %1, %25
  %27 = tail call i32 @Gia_ManCountMark1Dfs_rec(ptr noundef nonnull %0, i32 noundef %26)
  %28 = add nsw i32 %27, %22
  %29 = load i64, ptr %10, align 4
  %30 = lshr i64 %29, 62
  %31 = trunc nuw nsw i64 %30 to i32
  %32 = and i32 %31, 1
  %33 = add nsw i32 %28, %32
  br label %common.ret24
}